; Function Attrs: mustprogress uwtable
define void @_ZN2cv4UMat4onesEiiiNS_14UMatUsageFlagsE(ptr dead_on_unwind noalias writable sret(%"class.cv::UMat") align 8 %0, i32 noundef %1, i32 noundef %2, i32 noundef %3, i32 noundef %4) local_unnamed_addr #4 align 2 {
  %6 = alloca %"class.cv::Scalar_", align 8
  call void @llvm.lifetime.start.p0(i64 32, ptr nonnull %6) #25
  store double 1.000000e+00, ptr %6, align 8, !tbaa !134
  %7 = getelementptr inbounds nuw i8, ptr %6, i64 8
  call void @llvm.memset.p0.i64(ptr noundef nonnull align 8 dereferenceable(24) %7, i8 0, i64 24, i1 false)
  call void @_ZN2cv4UMatC1EiiiRKNS_7Scalar_IdEENS_14UMatUsageFlagsE(ptr noundef nonnull align 8 dereferenceable(80) %0, i32 noundef %1, i32 noundef %2, i32 noundef %3, ptr noundef nonnull align 8 dereferenceable(32) %6, i32 noundef %4)
  call void @llvm.lifetime.end.p0(i64 32, ptr nonnull %6) #25
  ret void
}